target datalayout = "e-m:e-p270:32:32-p271:32:32-p272:64:64-i64:64-i128:128-f80:128-n8:16:32:64-S128"
target triple = "x86_64-pc-linux-gnu"

; Function Attrs: nounwind uwtable
define internal i32 @g_write(ptr noundef %0, ptr noundef %1, i32 noundef %2) #0 {
  %4 = alloca i32, align 4
  %5 = alloca ptr, align 8
  %6 = alloca ptr, align 8
  %7 = alloca i32, align 4
  %8 = alloca i32, align 4
  %9 = alloca i32, align 4
  %10 = alloca [64 x i8], align 16
  %11 = alloca ptr, align 8
  %12 = alloca i64, align 8
  %13 = alloca i32, align 4
  store ptr %0, ptr %5, align 8, !tbaa !4
  store ptr %1, ptr %6, align 8, !tbaa !9
  store i32 %2, ptr %7, align 4, !tbaa !18
  call void @llvm.lifetime.start.p0(i64 4, ptr %8) #8
  %14 = load ptr, ptr %5, align 8, !tbaa !4
  %15 = call i32 @lua_gettop(ptr noundef %14)
  %16 = load i32, ptr %7, align 4, !tbaa !18
  %17 = sub nsw i32 %15, %16
  store i32 %17, ptr %8, align 4, !tbaa !18
  call void @llvm.lifetime.start.p0(i64 4, ptr %9) #8
  store i32 1, ptr %9, align 4, !tbaa !18
  %18 = call ptr @__errno_location() #9
  store i32 0, ptr %18, align 4, !tbaa !18
  br label %19

19:                                               ; preds = %52, %3
  %20 = load i32, ptr %8, align 4, !tbaa !18
  %21 = add nsw i32 %20, -1
  store i32 %21, ptr %8, align 4, !tbaa !18
  %22 = icmp ne i32 %20, 0
  br i1 %22, label %23, label %55

23:                                               ; preds = %19
  call void @llvm.lifetime.start.p0(i64 64, ptr %10) #8
  call void @llvm.lifetime.start.p0(i64 8, ptr %11) #8
  call void @llvm.lifetime.start.p0(i64 8, ptr %12) #8
  %24 = load ptr, ptr %5, align 8, !tbaa !4
  %25 = load i32, ptr %7, align 4, !tbaa !18
  %26 = getelementptr inbounds [64 x i8], ptr %10, i64 0, i64 0
  %27 = call i32 @lua_numbertocstring(ptr noundef %24, i32 noundef %25, ptr noundef %26)
  %28 = zext i32 %27 to i64
  store i64 %28, ptr %12, align 8, !tbaa !22
  %29 = load i64, ptr %12, align 8, !tbaa !22
  %30 = icmp ugt i64 %29, 0
  br i1 %30, label %31, label %35

31:                                               ; preds = %23
  %32 = getelementptr inbounds [64 x i8], ptr %10, i64 0, i64 0
  store ptr %32, ptr %11, align 8, !tbaa !11
  %33 = load i64, ptr %12, align 8, !tbaa !22
  %34 = add i64 %33, -1
  store i64 %34, ptr %12, align 8, !tbaa !22
  br label %39

35:                                               ; preds = %23
  %36 = load ptr, ptr %5, align 8, !tbaa !4
  %37 = load i32, ptr %7, align 4, !tbaa !18
  %38 = call ptr @luaL_checklstring(ptr noundef %36, i32 noundef %37, ptr noundef %12)
  store ptr %38, ptr %11, align 8, !tbaa !11
  br label %39

39:                                               ; preds = %35, %31
  %40 = load i32, ptr %9, align 4, !tbaa !18
  %41 = icmp ne i32 %40, 0
  br i1 %41, label %42, label %49

42:                                               ; preds = %39
  %43 = load ptr, ptr %11, align 8, !tbaa !11
  %44 = load i64, ptr %12, align 8, !tbaa !22
  %45 = load ptr, ptr %6, align 8, !tbaa !9
  %46 = call i64 @fwrite(ptr noundef %43, i64 noundef 1, i64 noundef %44, ptr noundef %45)
  %47 = load i64, ptr %12, align 8, !tbaa !22
  %48 = icmp eq i64 %46, %47
  br label %49

49:                                               ; preds = %42, %39
  %50 = phi i1 [ false, %39 ], [ %48, %42 ]
  %51 = zext i1 %50 to i32
  store i32 %51, ptr %9, align 4, !tbaa !18
  call void @llvm.lifetime.end.p0(i64 8, ptr %12) #8
  call void @llvm.lifetime.end.p0(i64 8, ptr %11) #8
  call void @llvm.lifetime.end.p0(i64 64, ptr %10) #8
  br label %52

52:                                               ; preds = %49
  %53 = load i32, ptr %7, align 4, !tbaa !18
  %54 = add nsw i32 %53, 1
  store i32 %54, ptr %7, align 4, !tbaa !18
  br label %19

55:                                               ; preds = %19
  %56 = load i32, ptr %9, align 4, !tbaa !18
  %57 = icmp ne i32 %56, 0
  %58 = zext i1 %57 to i32
  %59 = sext i32 %58 to i64
  %60 = call i64 @llvm.expect.i64(i64 %59, i64 1)
  %61 = icmp ne i64 %60, 0
  br i1 %61, label %62, label %63

62:                                               ; preds = %55
  store i32 1, ptr %4, align 4
  store i32 1, ptr %13, align 4
  br label %67

63:                                               ; preds = %55
  %64 = load ptr, ptr %5, align 8, !tbaa !4
  %65 = load i32, ptr %9, align 4, !tbaa !18
  %66 = call i32 @luaL_fileresult(ptr noundef %64, i32 noundef %65, ptr noundef null)
  store i32 %66, ptr %4, align 4
  store i32 1, ptr %13, align 4
  br label %67

67:                                               ; preds = %63, %62
  call void @llvm.lifetime.end.p0(i64 4, ptr %9) #8
  call void @llvm.lifetime.end.p0(i64 4, ptr %8) #8
  %68 = load i32, ptr %4, align 4
  ret i32 %68
}