; Function Attrs: nounwind uwtable
define internal fastcc i32 @g_write(ptr noundef %0, ptr noundef captures(none) %1, i32 noundef range(i32 1, 3) %2) unnamed_addr #0 {
  %4 = alloca [64 x i8], align 16
  %5 = alloca i64, align 8
  %6 = tail call i32 @lua_gettop(ptr noundef %0) #9
  %7 = tail call ptr @__errno_location() #10
  store i32 0, ptr %7, align 4, !tbaa !14
  %.not22 = icmp eq i32 %6, %2
  br i1 %.not22, label %.critedge, label %.lr.ph.preheader

.lr.ph.preheader:                                 ; preds = %3
  %8 = xor i32 %2, -1
  %9 = add i32 %6, %8
  br label %.lr.ph

.lr.ph:                                           ; preds = %.lr.ph.backedge, %.lr.ph.preheader
  %10 = phi i32 [ %9, %.lr.ph.preheader ], [ %.be, %.lr.ph.backedge ]
  %.01424 = phi i1 [ false, %.lr.ph.preheader ], [ %.01424.be, %.lr.ph.backedge ]
  %.01623 = phi i32 [ %2, %.lr.ph.preheader ], [ %.01623.be, %.lr.ph.backedge ]
  call void @llvm.lifetime.start.p0(i64 64, ptr nonnull %4) #9
  call void @llvm.lifetime.start.p0(i64 8, ptr nonnull %5) #9
  %11 = call i32 @lua_numbertocstring(ptr noundef %0, i32 noundef %.01623, ptr noundef nonnull %4) #9
  %12 = zext i32 %11 to i64
  store i64 %12, ptr %5, align 8, !tbaa !42
  %.not20 = icmp eq i32 %11, 0
  br i1 %.not20, label %15, label %13

13:                                               ; preds = %.lr.ph
  %14 = add nsw i64 %12, -1
  store i64 %14, ptr %5, align 8, !tbaa !42
  br label %17

15:                                               ; preds = %.lr.ph
  %16 = call ptr @luaL_checklstring(ptr noundef %0, i32 noundef %.01623, ptr noundef nonnull %5) #9
  br label %17

17:                                               ; preds = %15, %13
  %.0 = phi ptr [ %4, %13 ], [ %16, %15 ]
  br i1 %.01424, label %.thread, label %18

18:                                               ; preds = %17
  %19 = load i64, ptr %5, align 8, !tbaa !42
  %20 = call i64 @fwrite(ptr noundef %.0, i64 noundef 1, i64 noundef %19, ptr noundef %1)
  %21 = load i64, ptr %5, align 8, !tbaa !42
  %22 = icmp ne i64 %20, %21
  call void @llvm.lifetime.end.p0(i64 8, ptr nonnull %5) #9
  call void @llvm.lifetime.end.p0(i64 64, ptr nonnull %4) #9
  %.not = icmp eq i32 %10, 0
  br i1 %.not, label %._crit_edge, label %.lr.ph.backedge

.lr.ph.backedge:                                  ; preds = %18, %.thread
  %.01424.be = phi i1 [ %22, %18 ], [ true, %.thread ]
  %.01623.be = add nuw nsw i32 %.01623, 1
  %.be = add nsw i32 %10, -1
  br label %.lr.ph

.thread:                                          ; preds = %17
  call void @llvm.lifetime.end.p0(i64 8, ptr nonnull %5) #9
  call void @llvm.lifetime.end.p0(i64 64, ptr nonnull %4) #9
  %.not25 = icmp eq i32 %10, 0
  br i1 %.not25, label %._crit_edge.thread, label %.lr.ph.backedge

._crit_edge:                                      ; preds = %18
  br i1 %22, label %._crit_edge.thread, label %.critedge, !prof !43

._crit_edge.thread:                               ; preds = %.thread, %._crit_edge
  %23 = call i32 @luaL_fileresult(ptr noundef %0, i32 noundef 0, ptr noundef null) #9
  br label %.critedge

.critedge:                                        ; preds = %3, %._crit_edge, %._crit_edge.thread
  %.017 = phi i32 [ %23, %._crit_edge.thread ], [ 1, %._crit_edge ], [ 1, %3 ]
  ret i32 %.017
}